target datalayout = "e-m:e-p270:32:32-p271:32:32-p272:64:64-i64:64-i128:128-f80:128-n8:16:32:64-S128"
target triple = "x86_64-pc-linux-gnu"

%struct.png_struct_def = type { [1 x %struct.__jmp_buf_tag], ptr, ptr, i64, ptr, ptr, ptr, ptr, ptr, ptr, ptr, ptr, i8, i8, i32, i32, i32, i32, %struct.z_stream_s, i32, i32, i32, i32, i64, i32, i32, i32, ptr, ptr, i64, i32, i32, ptr, i16, i32, i16, i8, i8, i8, i8, i8, i8, i8, i8, i8, i8, i8, i8, i8, i8, i16, i8, i32, %struct.png_color_16_struct, %struct.png_color_16_struct, i32, i32, ptr, ptr, ptr, ptr, ptr, ptr, %struct.png_color_8_struct, %struct.png_color_8_struct, ptr, %struct.png_color_16_struct, ptr, ptr, ptr, ptr, ptr, ptr, ptr, ptr, ptr, i32, i32, i64, i64, i64, i64, i32, i32, ptr, ptr, [29 x i8], i32, ptr, ptr, i32, i32, ptr, i8, i8, i16, i16, ptr, i32, i8, ptr, ptr, ptr, ptr, ptr, ptr, ptr, i8, i32, i32, i32, i64, %struct.png_unknown_chunk_t, i64, ptr, i64, i32, i32, ptr, [4 x ptr], %struct.png_colorspace }
%struct.__jmp_buf_tag = type { [8 x i64], i32, %struct.__sigset_t }
%struct.__sigset_t = type { [16 x i64] }
%struct.z_stream_s = type { ptr, i32, i64, ptr, i32, i64, ptr, ptr, ptr, ptr, ptr, i32, i64, i64 }
%struct.png_color_8_struct = type { i8, i8, i8, i8, i8 }
%struct.png_color_16_struct = type { i8, i16, i16, i16, i16 }
%struct.png_unknown_chunk_t = type { [5 x i8], ptr, i64, i8 }
%struct.png_colorspace = type { i32, %struct.png_xy, %struct.png_XYZ, i16, i16 }
%struct.png_xy = type { i32, i32, i32, i32, i32, i32, i32, i32 }
%struct.png_XYZ = type { i32, i32, i32, i32, i32, i32, i32, i32, i32 }

@.str = private unnamed_addr constant [34 x i8] c"PNG unsigned integer out of range\00", align 1
@.str.39 = private unnamed_addr constant [19 x i8] c"invalid chunk type\00", align 1
@.str.40 = private unnamed_addr constant [24 x i8] c"chunk data is too large\00", align 1

; Function Attrs: nounwind uwtable
define hidden void @png_check_chunk_length(ptr noalias noundef %0, i32 noundef %1) #0 {
  %3 = alloca ptr, align 8
  %4 = alloca i32, align 4
  %5 = alloca i64, align 8
  %6 = alloca i64, align 8
  %7 = alloca i64, align 8
  store ptr %0, ptr %3, align 8
  store i32 %1, ptr %4, align 4
  store i64 2147483647, ptr %5, align 8
  %8 = load ptr, ptr %3, align 8
  %9 = getelementptr inbounds %struct.png_struct_def, ptr %8, i32 0, i32 111
  %10 = load i64, ptr %9, align 8
  %11 = icmp ugt i64 %10, 0
  br i1 %11, label %12, label %22

12:                                               ; preds = %2
  %13 = load ptr, ptr %3, align 8
  %14 = getelementptr inbounds %struct.png_struct_def, ptr %13, i32 0, i32 111
  %15 = load i64, ptr %14, align 8
  %16 = load i64, ptr %5, align 8
  %17 = icmp ult i64 %15, %16
  br i1 %17, label %18, label %22

18:                                               ; preds = %12
  %19 = load ptr, ptr %3, align 8
  %20 = getelementptr inbounds %struct.png_struct_def, ptr %19, i32 0, i32 111
  %21 = load i64, ptr %20, align 8
  store i64 %21, ptr %5, align 8
  br label %22

22:                                               ; preds = %18, %12, %2
  %23 = load ptr, ptr %3, align 8
  %24 = getelementptr inbounds %struct.png_struct_def, ptr %23, i32 0, i32 26
  %25 = load i32, ptr %24, align 8
  %26 = icmp eq i32 %25, 1229209940
  br i1 %26, label %27, label %101

27:                                               ; preds = %22
  store i64 2147483647, ptr %6, align 8
  %28 = load ptr, ptr %3, align 8
  %29 = getelementptr inbounds %struct.png_struct_def, ptr %28, i32 0, i32 19
  %30 = load i32, ptr %29, align 8
  %31 = zext i32 %30 to i64
  %32 = load ptr, ptr %3, align 8
  %33 = getelementptr inbounds %struct.png_struct_def, ptr %32, i32 0, i32 45
  %34 = load i8, ptr %33, align 1
  %35 = zext i8 %34 to i64
  %36 = mul i64 %31, %35
  %37 = load ptr, ptr %3, align 8
  %38 = getelementptr inbounds %struct.png_struct_def, ptr %37, i32 0, i32 42
  %39 = load i8, ptr %38, align 8
  %40 = zext i8 %39 to i32
  %41 = icmp sgt i32 %40, 8
  %42 = select i1 %41, i32 2, i32 1
  %43 = sext i32 %42 to i64
  %44 = mul i64 %36, %43
  %45 = add i64 %44, 1
  %46 = load ptr, ptr %3, align 8
  %47 = getelementptr inbounds %struct.png_struct_def, ptr %46, i32 0, i32 38
  %48 = load i8, ptr %47, align 4
  %49 = zext i8 %48 to i32
  %50 = icmp ne i32 %49, 0
  %51 = select i1 %50, i32 6, i32 0
  %52 = sext i32 %51 to i64
  %53 = add i64 %45, %52
  store i64 %53, ptr %7, align 8
  %54 = load ptr, ptr %3, align 8
  %55 = getelementptr inbounds %struct.png_struct_def, ptr %54, i32 0, i32 20
  %56 = load i32, ptr %55, align 4
  %57 = zext i32 %56 to i64
  %58 = load i64, ptr %7, align 8
  %59 = udiv i64 4294967295, %58
  %60 = icmp ugt i64 %57, %59
  br i1 %60, label %61, label %62

61:                                               ; preds = %27
  store i64 2147483647, ptr %6, align 8
  br label %69

62:                                               ; preds = %27
  %63 = load ptr, ptr %3, align 8
  %64 = getelementptr inbounds %struct.png_struct_def, ptr %63, i32 0, i32 20
  %65 = load i32, ptr %64, align 4
  %66 = zext i32 %65 to i64
  %67 = load i64, ptr %7, align 8
  %68 = mul i64 %66, %67
  store i64 %68, ptr %6, align 8
  br label %69

69:                                               ; preds = %62, %61
  %70 = load i64, ptr %7, align 8
  %71 = icmp ugt i64 %70, 32566
  br i1 %71, label %72, label %73

72:                                               ; preds = %69
  br label %75

73:                                               ; preds = %69
  %74 = load i64, ptr %7, align 8
  br label %75

75:                                               ; preds = %73, %72
  %76 = phi i64 [ 32566, %72 ], [ %74, %73 ]
  store i64 %76, ptr %7, align 8
  %77 = load i64, ptr %6, align 8
  %78 = load i64, ptr %7, align 8
  %79 = udiv i64 %77, %78
  %80 = add i64 %79, 1
  %81 = mul i64 5, %80
  %82 = add i64 6, %81
  %83 = load i64, ptr %6, align 8
  %84 = add i64 %83, %82
  store i64 %84, ptr %6, align 8
  %85 = load i64, ptr %6, align 8
  %86 = icmp ult i64 %85, 2147483647
  br i1 %86, label %87, label %89

87:                                               ; preds = %75
  %88 = load i64, ptr %6, align 8
  br label %90

89:                                               ; preds = %75
  br label %90

90:                                               ; preds = %89, %87
  %91 = phi i64 [ %88, %87 ], [ 2147483647, %89 ]
  store i64 %91, ptr %6, align 8
  %92 = load i64, ptr %5, align 8
  %93 = load i64, ptr %6, align 8
  %94 = icmp ult i64 %92, %93
  br i1 %94, label %95, label %97

95:                                               ; preds = %90
  %96 = load i64, ptr %6, align 8
  br label %99

97:                                               ; preds = %90
  %98 = load i64, ptr %5, align 8
  br label %99

99:                                               ; preds = %97, %95
  %100 = phi i64 [ %96, %95 ], [ %98, %97 ]
  store i64 %100, ptr %5, align 8
  br label %101

101:                                              ; preds = %99, %22
  %102 = load i32, ptr %4, align 4
  %103 = zext i32 %102 to i64
  %104 = load i64, ptr %5, align 8
  %105 = icmp ugt i64 %103, %104
  br i1 %105, label %106, label %108

106:                                              ; preds = %101
  %107 = load ptr, ptr %3, align 8
  call void @png_benign_error(ptr noundef %107, ptr noundef @.str.40)
  br label %108

108:                                              ; preds = %106, %101
  ret void
}

; Function Attrs: nounwind uwtable
define hidden void @png_check_chunk_name(ptr noalias noundef %0, i32 noundef %1) #0 {
  %3 = alloca ptr, align 8
  %4 = alloca i32, align 4
  %5 = alloca i32, align 4
  %6 = alloca i32, align 4
  %7 = alloca i32, align 4
  store ptr %0, ptr %3, align 8
  store i32 %1, ptr %4, align 4
  %8 = load i32, ptr %4, align 4
  store i32 %8, ptr %6, align 4
  store i32 1, ptr %5, align 4
  br label %9

9:                                                ; preds = %31, %2
  %10 = load i32, ptr %5, align 4
  %11 = icmp sle i32 %10, 4
  br i1 %11, label %12, label %34

12:                                               ; preds = %9
  %13 = load i32, ptr %6, align 4
  %14 = and i32 %13, 255
  store i32 %14, ptr %7, align 4
  %15 = load i32, ptr %7, align 4
  %16 = icmp slt i32 %15, 65
  br i1 %16, label %26, label %17

17:                                               ; preds = %12
  %18 = load i32, ptr %7, align 4
  %19 = icmp sgt i32 %18, 122
  br i1 %19, label %26, label %20

20:                                               ; preds = %17
  %21 = load i32, ptr %7, align 4
  %22 = icmp sgt i32 %21, 90
  br i1 %22, label %23, label %28

23:                                               ; preds = %20
  %24 = load i32, ptr %7, align 4
  %25 = icmp slt i32 %24, 97
  br i1 %25, label %26, label %28

26:                                               ; preds = %23, %17, %12
  %27 = load ptr, ptr %3, align 8
  call void @png_chunk_error(ptr noundef %27, ptr noundef @.str.39) #6
  unreachable

28:                                               ; preds = %23, %20
  %29 = load i32, ptr %6, align 4
  %30 = lshr i32 %29, 8
  store i32 %30, ptr %6, align 4
  br label %31

31:                                               ; preds = %28
  %32 = load i32, ptr %5, align 4
  %33 = add nsw i32 %32, 1
  store i32 %33, ptr %5, align 4
  br label %9, !llvm.loop !6

34:                                               ; preds = %9
  ret void
}

; Function Attrs: nounwind uwtable
define hidden i32 @png_get_uint_31(ptr noalias noundef %0, ptr noundef %1) #0 {
  %3 = alloca ptr, align 8
  %4 = alloca ptr, align 8
  %5 = alloca i32, align 4
  store ptr %0, ptr %3, align 8
  store ptr %1, ptr %4, align 8
  %6 = load ptr, ptr %4, align 8
  %7 = load i8, ptr %6, align 1
  %8 = zext i8 %7 to i32
  %9 = shl i32 %8, 24
  %10 = load ptr, ptr %4, align 8
  %11 = getelementptr inbounds i8, ptr %10, i64 1
  %12 = load i8, ptr %11, align 1
  %13 = zext i8 %12 to i32
  %14 = shl i32 %13, 16
  %15 = add i32 %9, %14
  %16 = load ptr, ptr %4, align 8
  %17 = getelementptr inbounds i8, ptr %16, i64 2
  %18 = load i8, ptr %17, align 1
  %19 = zext i8 %18 to i32
  %20 = shl i32 %19, 8
  %21 = add i32 %15, %20
  %22 = load ptr, ptr %4, align 8
  %23 = getelementptr inbounds i8, ptr %22, i64 3
  %24 = load i8, ptr %23, align 1
  %25 = zext i8 %24 to i32
  %26 = add i32 %21, %25
  store i32 %26, ptr %5, align 4
  %27 = load i32, ptr %5, align 4
  %28 = icmp ugt i32 %27, 2147483647
  br i1 %28, label %29, label %31

29:                                               ; preds = %2
  %30 = load ptr, ptr %3, align 8
  call void @png_error(ptr noundef %30, ptr noundef @.str) #6
  unreachable

31:                                               ; preds = %2
  %32 = load i32, ptr %5, align 4
  ret i32 %32
}

; Function Attrs: nounwind uwtable
define hidden i32 @png_read_chunk_header(ptr noalias noundef %0) #0 {
  %2 = alloca ptr, align 8
  %3 = alloca [8 x i8], align 1
  %4 = alloca i32, align 4
  store ptr %0, ptr %2, align 8
  %5 = load ptr, ptr %2, align 8
  %6 = getelementptr inbounds %struct.png_struct_def, ptr %5, i32 0, i32 117
  store i32 33, ptr %6, align 4
  %7 = load ptr, ptr %2, align 8
  %8 = getelementptr inbounds [8 x i8], ptr %3, i64 0, i64 0
  call void @png_read_data(ptr noundef %7, ptr noundef %8, i64 noundef 8)
  %9 = load ptr, ptr %2, align 8
  %10 = getelementptr inbounds [8 x i8], ptr %3, i64 0, i64 0
  %11 = call i32 @png_get_uint_31(ptr noundef %9, ptr noundef %10)
  store i32 %11, ptr %4, align 4
  %12 = getelementptr inbounds [8 x i8], ptr %3, i64 0, i64 0
  %13 = getelementptr inbounds i8, ptr %12, i64 4
  %14 = getelementptr inbounds i8, ptr %13, i64 0
  %15 = load i8, ptr %14, align 1
  %16 = zext i8 %15 to i32
  %17 = and i32 255, %16
  %18 = shl i32 %17, 24
  %19 = getelementptr inbounds [8 x i8], ptr %3, i64 0, i64 0
  %20 = getelementptr inbounds i8, ptr %19, i64 4
  %21 = getelementptr inbounds i8, ptr %20, i64 1
  %22 = load i8, ptr %21, align 1
  %23 = zext i8 %22 to i32
  %24 = and i32 255, %23
  %25 = shl i32 %24, 16
  %26 = or i32 %18, %25
  %27 = getelementptr inbounds [8 x i8], ptr %3, i64 0, i64 0
  %28 = getelementptr inbounds i8, ptr %27, i64 4
  %29 = getelementptr inbounds i8, ptr %28, i64 2
  %30 = load i8, ptr %29, align 1
  %31 = zext i8 %30 to i32
  %32 = and i32 255, %31
  %33 = shl i32 %32, 8
  %34 = or i32 %26, %33
  %35 = getelementptr inbounds [8 x i8], ptr %3, i64 0, i64 0
  %36 = getelementptr inbounds i8, ptr %35, i64 4
  %37 = getelementptr inbounds i8, ptr %36, i64 3
  %38 = load i8, ptr %37, align 1
  %39 = zext i8 %38 to i32
  %40 = and i32 255, %39
  %41 = shl i32 %40, 0
  %42 = or i32 %34, %41
  %43 = load ptr, ptr %2, align 8
  %44 = getelementptr inbounds %struct.png_struct_def, ptr %43, i32 0, i32 26
  store i32 %42, ptr %44, align 8
  %45 = load ptr, ptr %2, align 8
  call void @png_reset_crc(ptr noundef %45)
  %46 = load ptr, ptr %2, align 8
  %47 = getelementptr inbounds [8 x i8], ptr %3, i64 0, i64 0
  %48 = getelementptr inbounds i8, ptr %47, i64 4
  call void @png_calculate_crc(ptr noundef %46, ptr noundef %48, i64 noundef 4)
  %49 = load ptr, ptr %2, align 8
  %50 = load ptr, ptr %2, align 8
  %51 = getelementptr inbounds %struct.png_struct_def, ptr %50, i32 0, i32 26
  %52 = load i32, ptr %51, align 8
  call void @png_check_chunk_name(ptr noundef %49, i32 noundef %52)
  %53 = load ptr, ptr %2, align 8
  %54 = load i32, ptr %4, align 4
  call void @png_check_chunk_length(ptr noundef %53, i32 noundef %54)
  %55 = load ptr, ptr %2, align 8
  %56 = getelementptr inbounds %struct.png_struct_def, ptr %55, i32 0, i32 117
  store i32 65, ptr %56, align 4
  %57 = load i32, ptr %4, align 4
  ret i32 %57
}