; Function Attrs: nounwind uwtable
define hidden range(i32 0, -2147483648) i32 @png_read_chunk_header(ptr noalias noundef %0) local_unnamed_addr #0 {
  %2 = alloca [8 x i8], align 1
  %3 = getelementptr inbounds i8, ptr %0, i64 1028
  store i32 33, ptr %3, align 4
  call void @png_read_data(ptr noundef %0, ptr noundef nonnull %2, i64 noundef 8) #12
  %4 = load i8, ptr %2, align 1, !noalias !6
  %5 = zext i8 %4 to i32
  %6 = shl nuw i32 %5, 24
  %7 = icmp slt i32 %6, 0
  br i1 %7, label %8, label %png_get_uint_31.exit

8:                                                ; preds = %1
  call void @png_error(ptr noundef nonnull %0, ptr noundef nonnull @.str) #11
  unreachable

png_get_uint_31.exit:                             ; preds = %1
  %9 = getelementptr inbounds i8, ptr %2, i64 1
  %10 = load i8, ptr %9, align 1, !noalias !6
  %11 = zext i8 %10 to i32
  %12 = shl nuw nsw i32 %11, 16
  %13 = getelementptr inbounds i8, ptr %2, i64 2
  %14 = load i8, ptr %13, align 1, !noalias !6
  %15 = zext i8 %14 to i32
  %16 = shl nuw nsw i32 %15, 8
  %17 = getelementptr inbounds i8, ptr %2, i64 3
  %18 = load i8, ptr %17, align 1, !noalias !6
  %19 = zext i8 %18 to i32
  %20 = or disjoint i32 %12, %19
  %21 = or disjoint i32 %20, %16
  %22 = or disjoint i32 %21, %6
  %23 = getelementptr inbounds i8, ptr %2, i64 4
  %24 = load i8, ptr %23, align 1
  %25 = zext i8 %24 to i32
  %26 = shl nuw i32 %25, 24
  %27 = getelementptr inbounds i8, ptr %2, i64 5
  %28 = load i8, ptr %27, align 1
  %29 = zext i8 %28 to i32
  %30 = shl nuw nsw i32 %29, 16
  %31 = or disjoint i32 %30, %26
  %32 = getelementptr inbounds i8, ptr %2, i64 6
  %33 = load i8, ptr %32, align 1
  %34 = zext i8 %33 to i32
  %35 = shl nuw nsw i32 %34, 8
  %36 = or disjoint i32 %31, %35
  %37 = getelementptr inbounds i8, ptr %2, i64 7
  %38 = load i8, ptr %37, align 1
  %39 = zext i8 %38 to i32
  %40 = or disjoint i32 %36, %39
  %41 = getelementptr inbounds i8, ptr %0, i64 456
  store i32 %40, ptr %41, align 8
  call void @png_reset_crc(ptr noundef nonnull %0) #12
  call void @png_calculate_crc(ptr noundef nonnull %0, ptr noundef nonnull %23, i64 noundef 4) #12
  %42 = load i32, ptr %41, align 8
  br label %43

43:                                               ; preds = %48, %png_get_uint_31.exit
  %.016.i = phi i32 [ 1, %png_get_uint_31.exit ], [ %50, %48 ]
  %.01215.i = phi i32 [ %42, %png_get_uint_31.exit ], [ %49, %48 ]
  %44 = and i32 %.01215.i, 255
  %45 = add nsw i32 %44, -123
  %or.cond.i = icmp ult i32 %45, -58
  %46 = add nsw i32 %44, -91
  %or.cond3.i = icmp ult i32 %46, 6
  %or.cond14.i = select i1 %or.cond.i, i1 true, i1 %or.cond3.i
  br i1 %or.cond14.i, label %47, label %48

47:                                               ; preds = %43
  call void @png_chunk_error(ptr noundef %0, ptr noundef nonnull @.str.39) #11
  unreachable

48:                                               ; preds = %43
  %49 = lshr i32 %.01215.i, 8
  %50 = add nuw nsw i32 %.016.i, 1
  %exitcond.not.i = icmp eq i32 %50, 5
  br i1 %exitcond.not.i, label %png_check_chunk_name.exit, label %43, !llvm.loop !9

png_check_chunk_name.exit:                        ; preds = %48
  %51 = getelementptr inbounds i8, ptr %0, i64 960
  %52 = load i64, ptr %51, align 8, !alias.scope !11
  %53 = add i64 %52, -1
  %or.cond.i11 = icmp ult i64 %53, 2147483646
  %.026.i = select i1 %or.cond.i11, i64 %52, i64 2147483647
  %54 = icmp eq i32 %42, 1229209940
  br i1 %54, label %55, label %86

55:                                               ; preds = %png_check_chunk_name.exit
  %56 = getelementptr inbounds i8, ptr %0, i64 424
  %57 = load i32, ptr %56, align 8, !alias.scope !11
  %58 = zext i32 %57 to i64
  %59 = getelementptr inbounds i8, ptr %0, i64 523
  %60 = load i8, ptr %59, align 1, !alias.scope !11
  %61 = zext i8 %60 to i64
  %62 = mul nuw nsw i64 %61, %58
  %63 = getelementptr inbounds i8, ptr %0, i64 520
  %64 = load i8, ptr %63, align 8, !alias.scope !11
  %65 = icmp ugt i8 %64, 8
  %66 = zext i1 %65 to i64
  %67 = shl nuw nsw i64 %62, %66
  %68 = add nuw nsw i64 %67, 1
  %69 = getelementptr inbounds i8, ptr %0, i64 516
  %70 = load i8, ptr %69, align 4, !alias.scope !11
  %.not29.i = icmp eq i8 %70, 0
  %71 = select i1 %.not29.i, i64 0, i64 6
  %72 = add nuw nsw i64 %68, %71
  %73 = getelementptr inbounds i8, ptr %0, i64 428
  %74 = load i32, ptr %73, align 4, !alias.scope !11
  %75 = zext i32 %74 to i64
  %76 = udiv i64 4294967295, %72
  %77 = icmp ult i64 %76, %75
  %78 = mul i64 %72, %75
  %.0.i = select i1 %77, i64 2147483647, i64 %78
  %79 = call i64 @llvm.umin.i64(i64 %72, i64 32566)
  %80 = udiv i64 %.0.i, %79
  %81 = mul i64 %80, 5
  %82 = add i64 %81, 11
  %83 = add i64 %82, %.0.i
  %84 = call i64 @llvm.umin.i64(i64 %83, i64 2147483647)
  %85 = call i64 @llvm.umax.i64(i64 %.026.i, i64 %84)
  br label %86

86:                                               ; preds = %55, %png_check_chunk_name.exit
  %.1.i = phi i64 [ %85, %55 ], [ %.026.i, %png_check_chunk_name.exit ]
  %87 = zext nneg i32 %22 to i64
  %88 = icmp ult i64 %.1.i, %87
  br i1 %88, label %89, label %png_check_chunk_length.exit

89:                                               ; preds = %86
  call void @png_benign_error(ptr noundef nonnull %0, ptr noundef nonnull @.str.40) #12
  br label %png_check_chunk_length.exit

png_check_chunk_length.exit:                      ; preds = %86, %89
  store i32 65, ptr %3, align 4
  ret i32 %22
}